target datalayout = "e-m:e-p270:32:32-p271:32:32-p272:64:64-i64:64-i128:128-f80:128-n8:16:32:64-S128"
target triple = "x86_64-unknown-linux-gnu"

%"class.google::protobuf::io::ZeroCopyInputStream" = type { ptr }
%"class.google::protobuf::io::CopyingInputStreamAdaptor" = type <{ %"class.google::protobuf::io::ZeroCopyInputStream", ptr, i8, i8, [6 x i8], i64, %"class.std::unique_ptr.2", i32, i32, i32, [4 x i8] }>
%"class.std::unique_ptr.2" = type { %"struct.std::__uniq_ptr_data.3" }
%"struct.std::__uniq_ptr_data.3" = type { %"class.std::__uniq_ptr_impl.4" }
%"class.std::__uniq_ptr_impl.4" = type { %"class.std::tuple.5" }
%"class.std::tuple.5" = type { %"struct.std::_Tuple_impl.6" }
%"struct.std::_Tuple_impl.6" = type { %"struct.std::_Head_base.9" }
%"struct.std::_Head_base.9" = type { ptr }

; Function Attrs: mustprogress nounwind uwtable
define noundef i64 @_ZNK6google8protobuf2io25CopyingInputStreamAdaptor9ByteCountEv(ptr noundef nonnull align 8 dereferenceable(52) %this) unnamed_addr #4 align 2 {
entry:
  %this.addr = alloca ptr, align 8
  store ptr %this, ptr %this.addr, align 8
  %this1 = load ptr, ptr %this.addr, align 8
  %position_ = getelementptr inbounds %"class.google::protobuf::io::CopyingInputStreamAdaptor", ptr %this1, i32 0, i32 5
  %0 = load i64, ptr %position_, align 8
  %backup_bytes_ = getelementptr inbounds %"class.google::protobuf::io::CopyingInputStreamAdaptor", ptr %this1, i32 0, i32 9
  %1 = load i32, ptr %backup_bytes_, align 8
  %conv = sext i32 %1 to i64
  %sub = sub nsw i64 %0, %conv
  ret i64 %sub
}