; Function Attrs: mustprogress nofree norecurse nosync nounwind willreturn memory(argmem: read) uwtable
define noundef i64 @_ZNK6google8protobuf2io25CopyingInputStreamAdaptor9ByteCountEv(ptr nocapture noundef nonnull readonly align 8 dereferenceable(52) %this) unnamed_addr #8 align 2 {
entry:
  %position_ = getelementptr inbounds i8, ptr %this, i64 24
  %0 = load i64, ptr %position_, align 8
  %backup_bytes_ = getelementptr inbounds i8, ptr %this, i64 48
  %1 = load i32, ptr %backup_bytes_, align 8
  %conv = sext i32 %1 to i64
  %sub = sub nsw i64 %0, %conv
  ret i64 %sub
}